Certificate:
    Data:
        Version: 3 (0x2)
        Serial Number: 1 (0x1)
    Signature Algorithm: sha256WithRSAEncryption
        Issuer: CN=InvoiceSmashDev Root Certificate Authority, ST=Ontario, C=CA/emailAddress=aouda@uwo.ca, O=UWO, OU=ECE
        Validity
            Not Before: Mar 20 17:51:39 2018 GMT
            Not After : Mar 19 17:51:39 2023 GMT
        Subject: CN=localhost, ST=Ontario, C=CA/emailAddress=aouda@uwo.ca, O=UWO, OU=ECE
        Subject Public Key Info:
            Public Key Algorithm: rsaEncryption
                Public-Key: (2048 bit)
                Modulus:
                    00:cb:6a:9f:3b:e8:25:01:27:9e:c3:4b:4d:82:a9:
                    c9:c3:47:1e:0b:52:de:16:3a:1b:42:89:0d:1e:d4:
                    d8:29:c5:a7:16:c4:c1:e3:a7:1f:c2:d7:aa:dc:91:
                    5c:e8:02:7c:1d:69:d6:2f:cf:96:5c:58:c0:69:6c:
                    e8:6c:b4:ff:01:02:0f:6c:f6:30:e2:fa:e8:ed:62:
                    88:b5:74:7a:03:21:0d:30:d6:f7:a0:b6:7d:77:62:
                    8a:c6:dc:54:14:22:5f:e5:77:ae:df:20:90:f8:65:
                    bd:63:d0:e0:e7:bd:ae:10:88:c5:ba:4c:44:66:fb:
                    a3:f4:cc:36:d7:1c:b4:44:66:42:1a:24:8b:6a:d8:
                    d1:b8:72:9d:86:94:3f:04:f9:53:68:31:9d:15:e1:
                    67:76:14:76:37:44:19:eb:3b:57:15:db:6c:fb:79:
                    95:c2:34:29:d1:3d:7e:42:ed:cb:6c:3e:63:57:01:
                    43:1f:63:5d:ef:19:d6:ba:9d:dd:6d:ad:57:0e:c5:
                    84:19:29:c8:d8:d7:fe:71:64:22:ec:67:4c:82:4f:
                    6f:06:be:32:19:6d:ab:54:e7:48:c8:85:b1:fb:86:
                    c1:7b:19:d3:72:66:d0:36:67:26:18:3e:bc:1d:4a:
                    6c:7e:8d:a5:92:e6:6d:22:c6:3d:b2:ad:87:ed:43:
                    76:61
                Exponent: 65537 (0x10001)
        X509v3 extensions:
            X509v3 Basic Constraints: 
                CA:FALSE
            X509v3 Key Usage: 
                Digital Signature, Non Repudiation, Key Encipherment
            X509v3 Subject Alternative Name: 
                DNS:localhost, DNS:ece.local
    Signature Algorithm: sha256WithRSAEncryption
         94:29:48:05:46:53:a3:d6:87:90:f8:0c:51:6c:91:98:53:6e:
         29:3e:3b:13:37:63:cc:ea:15:ff:d7:20:8c:74:45:c4:0f:ec:
         05:27:a8:9a:f2:82:22:4d:ba:bf:5e:ae:6f:94:04:59:3a:f1:
         86:4b:43:5f:db:df:79:a2:dc:04:26:08:7b:69:fe:de:af:7d:
         af:20:b5:26:44:5e:f7:74:77:d2:a7:bd:47:f8:d9:36:ab:2c:
         bb:11:92:7d:aa:3b:68:de:64:03:aa:b6:8b:8d:5b:2b:62:9b:
         7f:17:31:b7:49:0b:a5:93:f9:9d:58:fa:58:d3:8d:dd:5c:fc:
         53:2a:58:af:13:7e:39:7b:56:ed:21:3e:bf:d8:33:5b:f7:e3:
         b3:05:ab:3f:6f:56:e0:59:1b:57:ea:e7:da:d3:08:c9:e4:77:
         6f:34:3a:57:10:15:b7:43:d9:5b:5e:46:eb:54:8c:9f:0c:3e:
         08:bd:23:5b:47:c0:5f:e5:d8:59:73:e5:95:d2:17:cc:42:bc:
         5c:7e:9a:90:ed:04:2a:54:78:58:50:39:72:22:ea:de:f7:6f:
         11:c5:4e:08:7b:9d:75:61:f2:92:02:b3:0a:30:ba:2b:78:cd:
         0f:ec:31:97:07:a8:ae:d7:d4:f6:00:8e:19:37:80:de:28:ce:
         15:78:cd:1d
-----BEGIN CERTIFICATE-----
MIIDsDCCApigAwIBAgIBATANBgkqhkiG9w0BAQsFADCBjTEzMDEGA1UEAwwqSW52
b2ljZVNtYXNoRGV2IFJvb3QgQ2VydGlmaWNhdGUgQXV0aG9yaXR5MRAwDgYDVQQI
DAdPbnRhcmlvMQswCQYDVQQGEwJDQTEbMBkGCSqGSIb3DQEJARYMYW91ZGFAdXdv
LmNhMQwwCgYDVQQKDANVV08xDDAKBgNVBAsMA0VDRTAeFw0xODAzMjAxNzUxMzla
Fw0yMzAzMTkxNzUxMzlaMGwxEjAQBgNVBAMMCWxvY2FsaG9zdDEQMA4GA1UECAwH
T250YXJpbzELMAkGA1UEBhMCQ0ExGzAZBgkqhkiG9w0BCQEWDGFvdWRhQHV3by5j
YTEMMAoGA1UECgwDVVdPMQwwCgYDVQQLDANFQ0UwggEiMA0GCSqGSIb3DQEBAQUA
A4IBDwAwggEKAoIBAQDLap876CUBJ57DS02CqcnDRx4LUt4WOhtCiQ0e1NgpxacW
xMHjpx/C16rckVzoAnwdadYvz5ZcWMBpbOhstP8BAg9s9jDi+ujtYoi1dHoDIQ0w
1vegtn13YorG3FQUIl/ld67fIJD4Zb1j0ODnva4QiMW6TERm+6P0zDbXHLREZkIa
JItq2NG4cp2GlD8E+VNoMZ0V4Wd2FHY3RBnrO1cV22z7eZXCNCnRPX5C7ctsPmNX
AUMfY13vGda6nd1trVcOxYQZKcjY1/5xZCLsZ0yCT28GvjIZbatU50jIhbH7hsF7
GdNyZtA2ZyYYPrwdSmx+jaWS5m0ixj2yrYftQ3ZhAgMBAAGjOzA5MAkGA1UdEwQC
MAAwCwYDVR0PBAQDAgXgMB8GA1UdEQQYMBaCCWxvY2FsaG9zdIIJZWNlLmxvY2Fs
MA0GCSqGSIb3DQEBCwUAA4IBAQCUKUgFRlOj1oeQ+AxRbJGYU24pPjsTN2PM6hX/
1yCMdEXED+wFJ6ia8oIiTbq/Xq5vlARZOvGGS0Nf2995otwEJgh7af7er32vILUm
RF73dHfSp71H+Nk2qyy7EZJ9qjto3mQDqraLjVsrYpt/FzG3SQulk/mdWPpY043d
XPxTKlivE345e1btIT6/2DNb9+OzBas/b1bgWRtX6ufa0wjJ5HdvNDpXEBW3Q9lb
XkbrVIyfDD4IvSNbR8Bf5dhZc+WV0hfMQrxcfpqQ7QQqVHhYUDlyIure928RxU4I
e511YfKSArMKMLoreM0P7DGXB6iu19T2AI4ZN4DeKM4VeM0d
-----END CERTIFICATE-----
